Certificate:
    Data:
        Version: 1 (0x0)
        Serial Number: 4164 (0x1044)
        Signature Algorithm: ecdsa-with-SHA256
        Issuer: C=CH, ST=Geneva, O=WHO, OU=TNG_TA, CN=WHO TNG_TA CA
        Validity
            Not Before: Jun 26 19:39:22 2023 GMT
            Not After : Jul  5 19:39:22 2024 GMT
        Subject: C=BE, ST=Brussel, L=Brussel, O=Vlaamse overheid, CN=Vlaamse overheid Issuing CA 2/emailAddress=vodcb@vlaanderen.be
        Subject Public Key Info:
            Public Key Algorithm: id-ecPublicKey
                Public-Key: (256 bit)
                pub:
                    04:c7:b3:eb:9c:24:23:94:47:e3:3a:60:9a:15:11:
                    a7:d2:e2:60:44:ad:4b:f1:63:b1:06:bd:7c:8b:aa:
                    9c:04:04:e0:e1:64:3f:2b:4f:9f:57:12:b0:c0:14:
                    41:26:9a:b9:12:e0:47:f1:3f:3c:3b:44:67:85:a6:
                    9b:81:60:9b:80
                ASN1 OID: prime256v1
                NIST CURVE: P-256
    Signature Algorithm: ecdsa-with-SHA256
         30:45:02:21:00:d0:e3:0c:38:34:23:aa:34:96:62:7a:8e:6f:
         02:a6:6e:90:34:1f:de:76:83:c6:44:76:d6:51:88:a5:0f:1d:
         47:02:20:7a:de:15:17:79:a9:b6:aa:d2:50:6d:69:53:40:a0:
         05:4d:23:c6:34:95:9f:5f:11:0c:20:24:38:a7:43:e3:08
-----BEGIN CERTIFICATE-----
MIIB1zCCAX0CAhBEMAoGCCqGSM49BAMCMFUxCzAJBgNVBAYTAkNIMQ8wDQYDVQQI
DAZHZW5ldmExDDAKBgNVBAoMA1dITzEPMA0GA1UECwwGVE5HX1RBMRYwFAYDVQQD
DA1XSE8gVE5HX1RBIENBMB4XDTIzMDYyNjE5MzkyMloXDTI0MDcwNTE5MzkyMlow
gZgxCzAJBgNVBAYTAkJFMRAwDgYDVQQIDAdCcnVzc2VsMRAwDgYDVQQHDAdCcnVz
c2VsMRkwFwYDVQQKDBBWbGFhbXNlIG92ZXJoZWlkMSYwJAYDVQQDDB1WbGFhbXNl
IG92ZXJoZWlkIElzc3VpbmcgQ0EgMjEiMCAGCSqGSIb3DQEJARYTdm9kY2JAdmxh
YW5kZXJlbi5iZTBZMBMGByqGSM49AgEGCCqGSM49AwEHA0IABMez65wkI5RH4zpg
mhURp9LiYEStS/FjsQa9fIuqnAQE4OFkPytPn1cSsMAUQSaauRLgR/E/PDtEZ4Wm
m4Fgm4AwCgYIKoZIzj0EAwIDSAAwRQIhANDjDDg0I6o0lmJ6jm8Cpm6QNB/edoPG
RHbWUYilDx1HAiB63hUXeam2qtJQbWlTQKAFTSPGNJWfXxEMICQ4p0PjCA==
-----END CERTIFICATE-----
