Certificate:
    Data:
        Version: 1 (0x0)
        Serial Number: 4116 (0x1014)
        Signature Algorithm: ecdsa-with-SHA256
        Issuer: C=CH, ST=Geneva, O=WHO, OU=TNG_TA, CN=WHO TNG_TA CA
        Validity
            Not Before: Jun 23 08:50:04 2023 GMT
            Not After : Jul  2 08:50:04 2024 GMT
        Subject: C=BE, ST=Brussel, L=Brussel, O=Vlaamse overheid, CN=Vlaamse overheid Issuing CA 2/emailAddress=vodcb@vlaanderen.be
        Subject Public Key Info:
            Public Key Algorithm: id-ecPublicKey
                Public-Key: (256 bit)
                pub:
                    04:c7:b3:eb:9c:24:23:94:47:e3:3a:60:9a:15:11:
                    a7:d2:e2:60:44:ad:4b:f1:63:b1:06:bd:7c:8b:aa:
                    9c:04:04:e0:e1:64:3f:2b:4f:9f:57:12:b0:c0:14:
                    41:26:9a:b9:12:e0:47:f1:3f:3c:3b:44:67:85:a6:
                    9b:81:60:9b:80
                ASN1 OID: prime256v1
                NIST CURVE: P-256
    Signature Algorithm: ecdsa-with-SHA256
         30:45:02:20:45:85:cf:72:16:90:fe:a5:65:32:0c:10:c7:b0:
         5b:01:e4:0b:f3:e3:02:43:99:f3:90:ca:a1:c7:24:05:9d:18:
         02:21:00:c3:de:7e:df:08:06:61:a5:2c:e8:16:f4:7b:6e:93:
         99:a1:69:a9:94:3f:d1:8e:11:a6:98:0c:31:1f:42:2b:ed
-----BEGIN CERTIFICATE-----
MIIB1zCCAX0CAhAUMAoGCCqGSM49BAMCMFUxCzAJBgNVBAYTAkNIMQ8wDQYDVQQI
DAZHZW5ldmExDDAKBgNVBAoMA1dITzEPMA0GA1UECwwGVE5HX1RBMRYwFAYDVQQD
DA1XSE8gVE5HX1RBIENBMB4XDTIzMDYyMzA4NTAwNFoXDTI0MDcwMjA4NTAwNFow
gZgxCzAJBgNVBAYTAkJFMRAwDgYDVQQIDAdCcnVzc2VsMRAwDgYDVQQHDAdCcnVz
c2VsMRkwFwYDVQQKDBBWbGFhbXNlIG92ZXJoZWlkMSYwJAYDVQQDDB1WbGFhbXNl
IG92ZXJoZWlkIElzc3VpbmcgQ0EgMjEiMCAGCSqGSIb3DQEJARYTdm9kY2JAdmxh
YW5kZXJlbi5iZTBZMBMGByqGSM49AgEGCCqGSM49AwEHA0IABMez65wkI5RH4zpg
mhURp9LiYEStS/FjsQa9fIuqnAQE4OFkPytPn1cSsMAUQSaauRLgR/E/PDtEZ4Wm
m4Fgm4AwCgYIKoZIzj0EAwIDSAAwRQIgRYXPchaQ/qVlMgwQx7BbAeQL8+MCQ5nz
kMqhxyQFnRgCIQDD3n7fCAZhpSzoFvR7bpOZoWmplD/RjhGmmAwxH0Ir7Q==
-----END CERTIFICATE-----
