Certificate:
    Data:
        Version: 1 (0x0)
        Serial Number: 4130 (0x1022)
        Signature Algorithm: ecdsa-with-SHA256
        Issuer: C=CH, ST=Geneva, O=WHO, OU=TNG_TA, CN=WHO TNG_TA CA
        Validity
            Not Before: Jun 23 09:50:15 2023 GMT
            Not After : Jul  2 09:50:15 2024 GMT
        Subject: C=BE, ST=Brussel, L=Brussel, O=Vlaamse overheid, CN=Vlaamse overheid Issuing CA 2/emailAddress=vodcb@vlaanderen.be
        Subject Public Key Info:
            Public Key Algorithm: id-ecPublicKey
                Public-Key: (256 bit)
                pub:
                    04:c7:b3:eb:9c:24:23:94:47:e3:3a:60:9a:15:11:
                    a7:d2:e2:60:44:ad:4b:f1:63:b1:06:bd:7c:8b:aa:
                    9c:04:04:e0:e1:64:3f:2b:4f:9f:57:12:b0:c0:14:
                    41:26:9a:b9:12:e0:47:f1:3f:3c:3b:44:67:85:a6:
                    9b:81:60:9b:80
                ASN1 OID: prime256v1
                NIST CURVE: P-256
    Signature Algorithm: ecdsa-with-SHA256
         30:44:02:20:63:fc:9c:6a:be:03:29:b3:3f:9b:12:0d:91:d6:
         db:3c:be:83:3c:8e:48:5c:96:6a:af:91:85:a4:09:b7:ba:39:
         02:20:75:b9:e3:97:c3:73:dc:04:56:a1:90:45:b2:a9:bc:82:
         59:f1:78:61:fc:39:da:15:43:ea:81:10:43:e4:15:a1
-----BEGIN CERTIFICATE-----
MIIB1jCCAX0CAhAiMAoGCCqGSM49BAMCMFUxCzAJBgNVBAYTAkNIMQ8wDQYDVQQI
DAZHZW5ldmExDDAKBgNVBAoMA1dITzEPMA0GA1UECwwGVE5HX1RBMRYwFAYDVQQD
DA1XSE8gVE5HX1RBIENBMB4XDTIzMDYyMzA5NTAxNVoXDTI0MDcwMjA5NTAxNVow
gZgxCzAJBgNVBAYTAkJFMRAwDgYDVQQIDAdCcnVzc2VsMRAwDgYDVQQHDAdCcnVz
c2VsMRkwFwYDVQQKDBBWbGFhbXNlIG92ZXJoZWlkMSYwJAYDVQQDDB1WbGFhbXNl
IG92ZXJoZWlkIElzc3VpbmcgQ0EgMjEiMCAGCSqGSIb3DQEJARYTdm9kY2JAdmxh
YW5kZXJlbi5iZTBZMBMGByqGSM49AgEGCCqGSM49AwEHA0IABMez65wkI5RH4zpg
mhURp9LiYEStS/FjsQa9fIuqnAQE4OFkPytPn1cSsMAUQSaauRLgR/E/PDtEZ4Wm
m4Fgm4AwCgYIKoZIzj0EAwIDRwAwRAIgY/ycar4DKbM/mxINkdbbPL6DPI5IXJZq
r5GFpAm3ujkCIHW545fDc9wEVqGQRbKpvIJZ8Xhh/DnaFUPqgRBD5BWh
-----END CERTIFICATE-----
