Certificate:
    Data:
        Version: 1 (0x0)
        Serial Number: 4158 (0x103e)
        Signature Algorithm: ecdsa-with-SHA256
        Issuer: C=CH, ST=Geneva, O=WHO, OU=TNG_TA, CN=WHO TNG_TA CA
        Validity
            Not Before: Jun 26 19:28:15 2023 GMT
            Not After : Jul  5 19:28:15 2024 GMT
        Subject: C=BE, ST=Brussel, L=Brussel, O=Vlaamse overheid, CN=Vlaamse overheid Issuing CA 2/emailAddress=vodcb@vlaanderen.be
        Subject Public Key Info:
            Public Key Algorithm: id-ecPublicKey
                Public-Key: (256 bit)
                pub:
                    04:c7:b3:eb:9c:24:23:94:47:e3:3a:60:9a:15:11:
                    a7:d2:e2:60:44:ad:4b:f1:63:b1:06:bd:7c:8b:aa:
                    9c:04:04:e0:e1:64:3f:2b:4f:9f:57:12:b0:c0:14:
                    41:26:9a:b9:12:e0:47:f1:3f:3c:3b:44:67:85:a6:
                    9b:81:60:9b:80
                ASN1 OID: prime256v1
                NIST CURVE: P-256
    Signature Algorithm: ecdsa-with-SHA256
         30:45:02:21:00:a6:16:e9:81:f4:d3:7e:39:b7:61:6e:34:23:
         8d:da:3e:eb:32:d5:25:59:e8:e1:fa:e0:f5:0e:97:51:06:c0:
         59:02:20:11:68:e0:4d:d0:0c:16:c0:4e:3b:20:a3:c3:14:3a:
         0e:49:72:de:c5:74:3b:64:22:d3:c4:63:3c:fc:ea:31:f2
-----BEGIN CERTIFICATE-----
MIIB1zCCAX0CAhA+MAoGCCqGSM49BAMCMFUxCzAJBgNVBAYTAkNIMQ8wDQYDVQQI
DAZHZW5ldmExDDAKBgNVBAoMA1dITzEPMA0GA1UECwwGVE5HX1RBMRYwFAYDVQQD
DA1XSE8gVE5HX1RBIENBMB4XDTIzMDYyNjE5MjgxNVoXDTI0MDcwNTE5MjgxNVow
gZgxCzAJBgNVBAYTAkJFMRAwDgYDVQQIDAdCcnVzc2VsMRAwDgYDVQQHDAdCcnVz
c2VsMRkwFwYDVQQKDBBWbGFhbXNlIG92ZXJoZWlkMSYwJAYDVQQDDB1WbGFhbXNl
IG92ZXJoZWlkIElzc3VpbmcgQ0EgMjEiMCAGCSqGSIb3DQEJARYTdm9kY2JAdmxh
YW5kZXJlbi5iZTBZMBMGByqGSM49AgEGCCqGSM49AwEHA0IABMez65wkI5RH4zpg
mhURp9LiYEStS/FjsQa9fIuqnAQE4OFkPytPn1cSsMAUQSaauRLgR/E/PDtEZ4Wm
m4Fgm4AwCgYIKoZIzj0EAwIDSAAwRQIhAKYW6YH00345t2FuNCON2j7rMtUlWejh
+uD1DpdRBsBZAiARaOBN0AwWwE47IKPDFDoOSXLexXQ7ZCLTxGM8/Oox8g==
-----END CERTIFICATE-----
