Certificate:
    Data:
        Version: 1 (0x0)
        Serial Number: 4120 (0x1018)
        Signature Algorithm: ecdsa-with-SHA256
        Issuer: C=CH, ST=Geneva, O=WHO, OU=TNG_TA, CN=WHO TNG_TA CA
        Validity
            Not Before: Jun 22 21:55:10 2023 GMT
            Not After : Jul  1 21:55:10 2024 GMT
        Subject: C=BE, ST=Brussel, L=Brussel, O=Vlaamse overheid, CN=Vlaamse overheid Issuing CA 2/emailAddress=vodcb@vlaanderen.be
        Subject Public Key Info:
            Public Key Algorithm: id-ecPublicKey
                Public-Key: (256 bit)
                pub:
                    04:00:21:1e:38:d8:e4:1d:24:52:92:d6:96:6d:06:
                    5a:7d:33:c0:b4:a8:f6:64:b0:01:00:6c:ea:d7:2b:
                    92:af:2c:6a:b7:cb:e5:5d:18:2d:70:17:a5:34:c9:
                    be:3c:4a:d9:78:3b:2e:fe:b5:4e:98:49:ab:43:93:
                    c3:72:29:8a:d2
                ASN1 OID: prime256v1
                NIST CURVE: P-256
    Signature Algorithm: ecdsa-with-SHA256
         30:46:02:21:00:fb:04:02:da:c4:a7:45:f6:c6:7e:7e:a1:55:
         73:2b:91:63:81:03:ab:d8:7a:e0:05:c7:27:83:78:89:ed:2e:
         fc:02:21:00:9b:73:da:a8:8f:55:3a:38:db:4b:b5:cf:4a:b4:
         84:f1:2d:03:44:bf:94:07:9f:9d:23:83:5c:70:13:5d:16:c7
-----BEGIN CERTIFICATE-----
MIIB2DCCAX0CAhAYMAoGCCqGSM49BAMCMFUxCzAJBgNVBAYTAkNIMQ8wDQYDVQQI
DAZHZW5ldmExDDAKBgNVBAoMA1dITzEPMA0GA1UECwwGVE5HX1RBMRYwFAYDVQQD
DA1XSE8gVE5HX1RBIENBMB4XDTIzMDYyMjIxNTUxMFoXDTI0MDcwMTIxNTUxMFow
gZgxCzAJBgNVBAYTAkJFMRAwDgYDVQQIDAdCcnVzc2VsMRAwDgYDVQQHDAdCcnVz
c2VsMRkwFwYDVQQKDBBWbGFhbXNlIG92ZXJoZWlkMSYwJAYDVQQDDB1WbGFhbXNl
IG92ZXJoZWlkIElzc3VpbmcgQ0EgMjEiMCAGCSqGSIb3DQEJARYTdm9kY2JAdmxh
YW5kZXJlbi5iZTBZMBMGByqGSM49AgEGCCqGSM49AwEHA0IABAAhHjjY5B0kUpLW
lm0GWn0zwLSo9mSwAQBs6tcrkq8sarfL5V0YLXAXpTTJvjxK2Xg7Lv61TphJq0OT
w3IpitIwCgYIKoZIzj0EAwIDSQAwRgIhAPsEAtrEp0X2xn5+oVVzK5FjgQOr2Hrg
Bccng3iJ7S78AiEAm3PaqI9VOjjbS7XPSrSE8S0DRL+UB5+dI4NccBNdFsc=
-----END CERTIFICATE-----
