Certificate:
    Data:
        Version: 1 (0x0)
        Serial Number: 4136 (0x1028)
        Signature Algorithm: ecdsa-with-SHA256
        Issuer: C=CH, ST=Geneva, O=WHO, OU=TNG_TA, CN=WHO TNG_TA CA
        Validity
            Not Before: Jun 23 10:17:10 2023 GMT
            Not After : Jul  2 10:17:10 2024 GMT
        Subject: C=BE, ST=Brussel, L=Brussel, O=Vlaamse overheid, CN=Vlaamse overheid Issuing CA 2/emailAddress=vodcb@vlaanderen.be
        Subject Public Key Info:
            Public Key Algorithm: id-ecPublicKey
                Public-Key: (256 bit)
                pub:
                    04:c7:b3:eb:9c:24:23:94:47:e3:3a:60:9a:15:11:
                    a7:d2:e2:60:44:ad:4b:f1:63:b1:06:bd:7c:8b:aa:
                    9c:04:04:e0:e1:64:3f:2b:4f:9f:57:12:b0:c0:14:
                    41:26:9a:b9:12:e0:47:f1:3f:3c:3b:44:67:85:a6:
                    9b:81:60:9b:80
                ASN1 OID: prime256v1
                NIST CURVE: P-256
    Signature Algorithm: ecdsa-with-SHA256
         30:45:02:21:00:c5:65:32:1d:68:86:58:97:5f:d3:74:6a:39:
         63:de:74:6c:3e:10:18:06:b4:50:84:56:90:0c:8f:e6:9c:8a:
         aa:02:20:6e:48:14:60:85:7f:86:a0:42:ff:4f:99:bd:10:49:
         e2:a7:14:59:f3:2f:83:f1:21:c4:b2:7c:fe:87:39:42:11
-----BEGIN CERTIFICATE-----
MIIB1zCCAX0CAhAoMAoGCCqGSM49BAMCMFUxCzAJBgNVBAYTAkNIMQ8wDQYDVQQI
DAZHZW5ldmExDDAKBgNVBAoMA1dITzEPMA0GA1UECwwGVE5HX1RBMRYwFAYDVQQD
DA1XSE8gVE5HX1RBIENBMB4XDTIzMDYyMzEwMTcxMFoXDTI0MDcwMjEwMTcxMFow
gZgxCzAJBgNVBAYTAkJFMRAwDgYDVQQIDAdCcnVzc2VsMRAwDgYDVQQHDAdCcnVz
c2VsMRkwFwYDVQQKDBBWbGFhbXNlIG92ZXJoZWlkMSYwJAYDVQQDDB1WbGFhbXNl
IG92ZXJoZWlkIElzc3VpbmcgQ0EgMjEiMCAGCSqGSIb3DQEJARYTdm9kY2JAdmxh
YW5kZXJlbi5iZTBZMBMGByqGSM49AgEGCCqGSM49AwEHA0IABMez65wkI5RH4zpg
mhURp9LiYEStS/FjsQa9fIuqnAQE4OFkPytPn1cSsMAUQSaauRLgR/E/PDtEZ4Wm
m4Fgm4AwCgYIKoZIzj0EAwIDSAAwRQIhAMVlMh1ohliXX9N0ajlj3nRsPhAYBrRQ
hFaQDI/mnIqqAiBuSBRghX+GoEL/T5m9EEnipxRZ8y+D8SHEsnz+hzlCEQ==
-----END CERTIFICATE-----
