Certificate:
    Data:
        Version: 1 (0x0)
        Serial Number: 4247 (0x1097)
        Signature Algorithm: ecdsa-with-SHA256
        Issuer: C=CH, ST=Geneva, O=WHO, OU=TNG_TLS, CN=WHO TNG_TLS CA
        Validity
            Not Before: Jun 22 21:55:10 2023 GMT
            Not After : Jul  1 21:55:10 2024 GMT
        Subject: C=BE, ST=Brussel, L=Brussel, O=Vlaamse overheid, CN=Vlaamse overheid Root CA/emailAddress=vodcb@vlaanderen.be
        Subject Public Key Info:
            Public Key Algorithm: id-ecPublicKey
                Public-Key: (256 bit)
                pub:
                    04:71:63:b2:23:19:c1:57:fa:6f:bd:b0:14:85:63:
                    05:23:5f:2d:8d:03:21:62:ed:b3:3b:82:90:8b:cf:
                    d1:e1:72:6a:49:93:a5:84:3c:a4:af:45:31:47:f8:
                    a3:18:f3:35:77:9f:5a:c6:3f:a2:5f:e5:9d:c3:b7:
                    3b:15:08:12:5a
                ASN1 OID: prime256v1
                NIST CURVE: P-256
    Signature Algorithm: ecdsa-with-SHA256
         30:46:02:21:00:e3:4b:32:05:86:64:f0:40:ce:6a:51:78:ac:
         6b:7b:11:18:57:98:d3:0d:0a:0c:e9:42:84:38:d6:d2:b1:3c:
         09:02:21:00:de:a8:5d:35:ce:18:a5:25:a6:9c:7c:d1:10:8f:
         28:b0:b1:28:06:71:64:98:49:e9:50:a4:c9:56:5b:43:4e:7e
-----BEGIN CERTIFICATE-----
MIIB1TCCAXoCAhCXMAoGCCqGSM49BAMCMFcxCzAJBgNVBAYTAkNIMQ8wDQYDVQQI
DAZHZW5ldmExDDAKBgNVBAoMA1dITzEQMA4GA1UECwwHVE5HX1RMUzEXMBUGA1UE
AwwOV0hPIFROR19UTFMgQ0EwHhcNMjMwNjIyMjE1NTEwWhcNMjQwNzAxMjE1NTEw
WjCBkzELMAkGA1UEBhMCQkUxEDAOBgNVBAgMB0JydXNzZWwxEDAOBgNVBAcMB0Jy
dXNzZWwxGTAXBgNVBAoMEFZsYWFtc2Ugb3ZlcmhlaWQxITAfBgNVBAMMGFZsYWFt
c2Ugb3ZlcmhlaWQgUm9vdCBDQTEiMCAGCSqGSIb3DQEJARYTdm9kY2JAdmxhYW5k
ZXJlbi5iZTBZMBMGByqGSM49AgEGCCqGSM49AwEHA0IABHFjsiMZwVf6b72wFIVj
BSNfLY0DIWLtszuCkIvP0eFyakmTpYQ8pK9FMUf4oxjzNXefWsY/ol/lncO3OxUI
ElowCgYIKoZIzj0EAwIDSQAwRgIhAONLMgWGZPBAzmpReKxrexEYV5jTDQoM6UKE
ONbSsTwJAiEA3qhdNc4YpSWmnHzREI8osLEoBnFkmEnpUKTJVltDTn4=
-----END CERTIFICATE-----
