Certificate:
    Data:
        Version: 1 (0x0)
        Serial Number: 4248 (0x1098)
        Signature Algorithm: ecdsa-with-SHA256
        Issuer: C=CH, ST=Geneva, O=WHO, OU=TNG_TLS, CN=WHO TNG_TLS CA
        Validity
            Not Before: Jun 22 21:55:10 2023 GMT
            Not After : Jul  1 21:55:10 2024 GMT
        Subject: C=BE, O=eHealth - Vlaamse Overheid, OU=MAGDA, CN=attestations-tls-acpt.magda.vlaanderen.be/emailAddress=helpdesk.magda@vlaanderen.be
        Subject Public Key Info:
            Public Key Algorithm: id-ecPublicKey
                Public-Key: (256 bit)
                pub:
                    04:71:63:b2:23:19:c1:57:fa:6f:bd:b0:14:85:63:
                    05:23:5f:2d:8d:03:21:62:ed:b3:3b:82:90:8b:cf:
                    d1:e1:72:6a:49:93:a5:84:3c:a4:af:45:31:47:f8:
                    a3:18:f3:35:77:9f:5a:c6:3f:a2:5f:e5:9d:c3:b7:
                    3b:15:08:12:5a
                ASN1 OID: prime256v1
                NIST CURVE: P-256
    Signature Algorithm: ecdsa-with-SHA256
         30:44:02:20:48:8b:c4:dc:74:36:0e:56:ca:f9:92:c5:98:00:
         19:13:08:33:b2:1f:db:57:0b:ce:58:e7:30:63:06:b8:2f:6b:
         02:20:59:59:d7:85:da:8c:a6:75:b9:34:37:7b:1d:a2:d1:0b:
         fe:33:50:da:f5:ca:42:63:3e:67:a5:0c:fe:e9:58:ab
-----BEGIN CERTIFICATE-----
MIIB4zCCAYoCAhCYMAoGCCqGSM49BAMCMFcxCzAJBgNVBAYTAkNIMQ8wDQYDVQQI
DAZHZW5ldmExDDAKBgNVBAoMA1dITzEQMA4GA1UECwwHVE5HX1RMUzEXMBUGA1UE
AwwOV0hPIFROR19UTFMgQ0EwHhcNMjMwNjIyMjE1NTEwWhcNMjQwNzAxMjE1NTEw
WjCBozELMAkGA1UEBhMCQkUxIzAhBgNVBAoMGmVIZWFsdGggLSBWbGFhbXNlIE92
ZXJoZWlkMQ4wDAYDVQQLDAVNQUdEQTEyMDAGA1UEAwwpYXR0ZXN0YXRpb25zLXRs
cy1hY3B0Lm1hZ2RhLnZsYWFuZGVyZW4uYmUxKzApBgkqhkiG9w0BCQEWHGhlbHBk
ZXNrLm1hZ2RhQHZsYWFuZGVyZW4uYmUwWTATBgcqhkjOPQIBBggqhkjOPQMBBwNC
AARxY7IjGcFX+m+9sBSFYwUjXy2NAyFi7bM7gpCLz9HhcmpJk6WEPKSvRTFH+KMY
8zV3n1rGP6Jf5Z3DtzsVCBJaMAoGCCqGSM49BAMCA0cAMEQCIEiLxNx0Ng5WyvmS
xZgAGRMIM7If21cLzljnMGMGuC9rAiBZWdeF2oymdbk0N3sdotEL/jNQ2vXKQmM+
Z6UM/ulYqw==
-----END CERTIFICATE-----
