Certificate:
    Data:
        Version: 1 (0x0)
        Serial Number: 4258 (0x10a2)
        Signature Algorithm: ecdsa-with-SHA256
        Issuer: C=CH, ST=Geneva, O=WHO, OU=TNG_TLS, CN=WHO TNG_TLS CA
        Validity
            Not Before: Jun 22 21:55:10 2023 GMT
            Not After : Jul  1 21:55:10 2024 GMT
        Subject: C=XX, ST=RYAN TEST COUNTRY, CN=XX/emailAddress=ryan@seldonplan.com
        Subject Public Key Info:
            Public Key Algorithm: id-ecPublicKey
                Public-Key: (256 bit)
                pub:
                    04:71:63:b2:23:19:c1:57:fa:6f:bd:b0:14:85:63:
                    05:23:5f:2d:8d:03:21:62:ed:b3:3b:82:90:8b:cf:
                    d1:e1:72:6a:49:93:a5:84:3c:a4:af:45:31:47:f8:
                    a3:18:f3:35:77:9f:5a:c6:3f:a2:5f:e5:9d:c3:b7:
                    3b:15:08:12:5a
                ASN1 OID: prime256v1
                NIST CURVE: P-256
    Signature Algorithm: ecdsa-with-SHA256
         30:46:02:21:00:f2:29:3e:1c:e4:d3:0c:fc:b1:94:03:4c:1f:
         9f:d5:c9:2e:03:50:49:2a:e0:50:08:e7:dc:8f:60:b0:25:7b:
         fa:02:21:00:82:32:9d:e5:70:0f:15:21:c7:86:14:b7:31:a7:
         bf:a3:86:05:fd:cb:84:14:ee:60:3b:0d:a4:84:5e:12:ff:18
-----BEGIN CERTIFICATE-----
MIIBmzCCAUACAhCiMAoGCCqGSM49BAMCMFcxCzAJBgNVBAYTAkNIMQ8wDQYDVQQI
DAZHZW5ldmExDDAKBgNVBAoMA1dITzEQMA4GA1UECwwHVE5HX1RMUzEXMBUGA1UE
AwwOV0hPIFROR19UTFMgQ0EwHhcNMjMwNjIyMjE1NTEwWhcNMjQwNzAxMjE1NTEw
WjBaMQswCQYDVQQGEwJYWDEaMBgGA1UECAwRUllBTiBURVNUIENPVU5UUlkxCzAJ
BgNVBAMMAlhYMSIwIAYJKoZIhvcNAQkBFhNyeWFuQHNlbGRvbnBsYW4uY29tMFkw
EwYHKoZIzj0CAQYIKoZIzj0DAQcDQgAEcWOyIxnBV/pvvbAUhWMFI18tjQMhYu2z
O4KQi8/R4XJqSZOlhDykr0UxR/ijGPM1d59axj+iX+Wdw7c7FQgSWjAKBggqhkjO
PQQDAgNJADBGAiEA8ik+HOTTDPyxlANMH5/VyS4DUEkq4FAI59yPYLAle/oCIQCC
Mp3lcA8VIceGFLcxp7+jhgX9y4QU7mA7DaSEXhL/GA==
-----END CERTIFICATE-----
