Certificate:
    Data:
        Version: 1 (0x0)
        Serial Number: 4259 (0x10a3)
        Signature Algorithm: ecdsa-with-SHA256
        Issuer: C=CH, ST=Geneva, O=WHO, OU=TNG_TLS, CN=WHO TNG_TLS CA
        Validity
            Not Before: Jun 22 21:55:10 2023 GMT
            Not After : Jul  1 21:55:10 2024 GMT
        Subject: C=XX, ST=RYAN TEST COUNTRY, CN=XX/emailAddress=ryan@seldonplan.com
        Subject Public Key Info:
            Public Key Algorithm: id-ecPublicKey
                Public-Key: (256 bit)
                pub:
                    04:71:63:b2:23:19:c1:57:fa:6f:bd:b0:14:85:63:
                    05:23:5f:2d:8d:03:21:62:ed:b3:3b:82:90:8b:cf:
                    d1:e1:72:6a:49:93:a5:84:3c:a4:af:45:31:47:f8:
                    a3:18:f3:35:77:9f:5a:c6:3f:a2:5f:e5:9d:c3:b7:
                    3b:15:08:12:5a
                ASN1 OID: prime256v1
                NIST CURVE: P-256
    Signature Algorithm: ecdsa-with-SHA256
         30:45:02:20:6a:da:d2:3b:56:89:0a:ee:39:28:96:f3:55:10:
         06:fd:15:f6:0e:67:a4:74:f3:36:e5:27:ff:60:80:e7:5d:a3:
         02:21:00:e2:65:63:bd:06:52:a2:66:04:2b:4b:cc:3f:e7:0a:
         ea:9b:0d:03:f5:11:c1:9e:e9:a6:e8:11:42:2d:5b:d6:3b
-----BEGIN CERTIFICATE-----
MIIBmjCCAUACAhCjMAoGCCqGSM49BAMCMFcxCzAJBgNVBAYTAkNIMQ8wDQYDVQQI
DAZHZW5ldmExDDAKBgNVBAoMA1dITzEQMA4GA1UECwwHVE5HX1RMUzEXMBUGA1UE
AwwOV0hPIFROR19UTFMgQ0EwHhcNMjMwNjIyMjE1NTEwWhcNMjQwNzAxMjE1NTEw
WjBaMQswCQYDVQQGEwJYWDEaMBgGA1UECAwRUllBTiBURVNUIENPVU5UUlkxCzAJ
BgNVBAMMAlhYMSIwIAYJKoZIhvcNAQkBFhNyeWFuQHNlbGRvbnBsYW4uY29tMFkw
EwYHKoZIzj0CAQYIKoZIzj0DAQcDQgAEcWOyIxnBV/pvvbAUhWMFI18tjQMhYu2z
O4KQi8/R4XJqSZOlhDykr0UxR/ijGPM1d59axj+iX+Wdw7c7FQgSWjAKBggqhkjO
PQQDAgNIADBFAiBq2tI7VokK7jkolvNVEAb9FfYOZ6R08zblJ/9ggOddowIhAOJl
Y70GUqJmBCtLzD/nCuqbDQP1EcGe6aboEUItW9Y7
-----END CERTIFICATE-----
