Certificate:
    Data:
        Version: 1 (0x0)
        Serial Number: 4257 (0x10a1)
        Signature Algorithm: ecdsa-with-SHA256
        Issuer: C=CH, ST=Geneva, O=WHO, OU=TNG_TLS, CN=WHO TNG_TLS CA
        Validity
            Not Before: Jun 22 21:55:10 2023 GMT
            Not After : Jul  1 21:55:10 2024 GMT
        Subject: C=DE, O=T-Systems International GmbH, OU=Trust Center, CN=Deutsche Telekom Internal Root CA 2
        Subject Public Key Info:
            Public Key Algorithm: id-ecPublicKey
                Public-Key: (256 bit)
                pub:
                    04:71:63:b2:23:19:c1:57:fa:6f:bd:b0:14:85:63:
                    05:23:5f:2d:8d:03:21:62:ed:b3:3b:82:90:8b:cf:
                    d1:e1:72:6a:49:93:a5:84:3c:a4:af:45:31:47:f8:
                    a3:18:f3:35:77:9f:5a:c6:3f:a2:5f:e5:9d:c3:b7:
                    3b:15:08:12:5a
                ASN1 OID: prime256v1
                NIST CURVE: P-256
    Signature Algorithm: ecdsa-with-SHA256
         30:45:02:21:00:91:a5:37:a8:05:ef:dd:6a:62:3a:56:19:a9:
         28:2f:83:13:b2:df:a1:2f:5d:e0:d2:5a:03:ac:12:21:74:c3:
         02:02:20:4d:85:7c:9c:d3:d1:c1:e9:71:c5:5d:d6:9a:b3:0c:
         4f:25:2c:a2:9a:0f:6a:38:34:7e:a4:af:8a:d6:16:4e:5e
-----BEGIN CERTIFICATE-----
MIIBuTCCAV8CAhChMAoGCCqGSM49BAMCMFcxCzAJBgNVBAYTAkNIMQ8wDQYDVQQI
DAZHZW5ldmExDDAKBgNVBAoMA1dITzEQMA4GA1UECwwHVE5HX1RMUzEXMBUGA1UE
AwwOV0hPIFROR19UTFMgQ0EwHhcNMjMwNjIyMjE1NTEwWhcNMjQwNzAxMjE1NTEw
WjB5MQswCQYDVQQGEwJERTElMCMGA1UECgwcVC1TeXN0ZW1zIEludGVybmF0aW9u
YWwgR21iSDEVMBMGA1UECwwMVHJ1c3QgQ2VudGVyMSwwKgYDVQQDDCNEZXV0c2No
ZSBUZWxla29tIEludGVybmFsIFJvb3QgQ0EgMjBZMBMGByqGSM49AgEGCCqGSM49
AwEHA0IABHFjsiMZwVf6b72wFIVjBSNfLY0DIWLtszuCkIvP0eFyakmTpYQ8pK9F
MUf4oxjzNXefWsY/ol/lncO3OxUIElowCgYIKoZIzj0EAwIDSAAwRQIhAJGlN6gF
791qYjpWGakoL4MTst+hL13g0loDrBIhdMMCAiBNhXyc09HB6XHFXdaaswxPJSyi
mg9qODR+pK+K1hZOXg==
-----END CERTIFICATE-----
