Certificate:
    Data:
        Version: 1 (0x0)
        Serial Number: 4252 (0x109c)
        Signature Algorithm: ecdsa-with-SHA256
        Issuer: C=CH, ST=Geneva, O=WHO, OU=TNG_TLS, CN=WHO TNG_TLS CA
        Validity
            Not Before: Jun 22 21:55:10 2023 GMT
            Not After : Jul  1 21:55:10 2024 GMT
        Subject: C=HR, ST=ZG, L=Zagreb, O=AKD d.o.o., OU=ICTInfrastructure, CN=ACC-Croatia_NBTLS_2023
        Subject Public Key Info:
            Public Key Algorithm: id-ecPublicKey
                Public-Key: (256 bit)
                pub:
                    04:71:63:b2:23:19:c1:57:fa:6f:bd:b0:14:85:63:
                    05:23:5f:2d:8d:03:21:62:ed:b3:3b:82:90:8b:cf:
                    d1:e1:72:6a:49:93:a5:84:3c:a4:af:45:31:47:f8:
                    a3:18:f3:35:77:9f:5a:c6:3f:a2:5f:e5:9d:c3:b7:
                    3b:15:08:12:5a
                ASN1 OID: prime256v1
                NIST CURVE: P-256
    Signature Algorithm: ecdsa-with-SHA256
         30:45:02:21:00:a2:e2:31:4b:70:e9:b9:c0:0a:48:fb:b0:19:
         f0:29:70:de:09:90:94:9e:c6:5e:5b:1e:76:ed:09:0e:ed:0d:
         1a:02:20:04:ac:e3:dc:3f:49:81:8c:8f:b5:c5:be:4a:8f:e0:
         22:56:95:1a:ba:a6:9c:0d:99:9b:86:82:2e:57:92:31:5b
-----BEGIN CERTIFICATE-----
MIIBvTCCAWMCAhCcMAoGCCqGSM49BAMCMFcxCzAJBgNVBAYTAkNIMQ8wDQYDVQQI
DAZHZW5ldmExDDAKBgNVBAoMA1dITzEQMA4GA1UECwwHVE5HX1RMUzEXMBUGA1UE
AwwOV0hPIFROR19UTFMgQ0EwHhcNMjMwNjIyMjE1NTEwWhcNMjQwNzAxMjE1NTEw
WjB9MQswCQYDVQQGEwJIUjELMAkGA1UECAwCWkcxDzANBgNVBAcMBlphZ3JlYjET
MBEGA1UECgwKQUtEIGQuby5vLjEaMBgGA1UECwwRSUNUSW5mcmFzdHJ1Y3R1cmUx
HzAdBgNVBAMMFkFDQy1Dcm9hdGlhX05CVExTXzIwMjMwWTATBgcqhkjOPQIBBggq
hkjOPQMBBwNCAARxY7IjGcFX+m+9sBSFYwUjXy2NAyFi7bM7gpCLz9HhcmpJk6WE
PKSvRTFH+KMY8zV3n1rGP6Jf5Z3DtzsVCBJaMAoGCCqGSM49BAMCA0gAMEUCIQCi
4jFLcOm5wApI+7AZ8Clw3gmQlJ7GXlsedu0JDu0NGgIgBKzj3D9JgYyPtcW+So/g
IlaVGrqmnA2Zm4aCLleSMVs=
-----END CERTIFICATE-----
