Certificate:
    Data:
        Version: 1 (0x0)
        Serial Number: 4256 (0x10a0)
        Signature Algorithm: ecdsa-with-SHA256
        Issuer: C=CH, ST=Geneva, O=WHO, OU=TNG_TLS, CN=WHO TNG_TLS CA
        Validity
            Not Before: Jun 22 21:55:10 2023 GMT
            Not After : Jul  1 21:55:10 2024 GMT
        Subject: C=SE, O=Swedish eHealth Agency, CN=dgcg-qa.covidbevis.se
        Subject Public Key Info:
            Public Key Algorithm: id-ecPublicKey
                Public-Key: (256 bit)
                pub:
                    04:71:63:b2:23:19:c1:57:fa:6f:bd:b0:14:85:63:
                    05:23:5f:2d:8d:03:21:62:ed:b3:3b:82:90:8b:cf:
                    d1:e1:72:6a:49:93:a5:84:3c:a4:af:45:31:47:f8:
                    a3:18:f3:35:77:9f:5a:c6:3f:a2:5f:e5:9d:c3:b7:
                    3b:15:08:12:5a
                ASN1 OID: prime256v1
                NIST CURVE: P-256
    Signature Algorithm: ecdsa-with-SHA256
         30:45:02:20:1d:85:77:fe:21:09:16:06:38:11:87:40:25:01:
         ab:2f:ef:2c:60:98:2c:9b:0f:bf:de:8b:2a:51:02:8f:b8:80:
         02:21:00:90:07:2d:e4:59:e7:fb:3e:a7:ae:4c:8c:d3:c8:f5:
         c5:62:3b:c6:75:08:0d:30:31:5c:f5:91:6c:b1:40:6c:90
-----BEGIN CERTIFICATE-----
MIIBjjCCATQCAhCgMAoGCCqGSM49BAMCMFcxCzAJBgNVBAYTAkNIMQ8wDQYDVQQI
DAZHZW5ldmExDDAKBgNVBAoMA1dITzEQMA4GA1UECwwHVE5HX1RMUzEXMBUGA1UE
AwwOV0hPIFROR19UTFMgQ0EwHhcNMjMwNjIyMjE1NTEwWhcNMjQwNzAxMjE1NTEw
WjBOMQswCQYDVQQGEwJTRTEfMB0GA1UECgwWU3dlZGlzaCBlSGVhbHRoIEFnZW5j
eTEeMBwGA1UEAwwVZGdjZy1xYS5jb3ZpZGJldmlzLnNlMFkwEwYHKoZIzj0CAQYI
KoZIzj0DAQcDQgAEcWOyIxnBV/pvvbAUhWMFI18tjQMhYu2zO4KQi8/R4XJqSZOl
hDykr0UxR/ijGPM1d59axj+iX+Wdw7c7FQgSWjAKBggqhkjOPQQDAgNIADBFAiAd
hXf+IQkWBjgRh0AlAasv7yxgmCybD7/eiypRAo+4gAIhAJAHLeRZ5/s+p65MjNPI
9cViO8Z1CA0wMVz1kWyxQGyQ
-----END CERTIFICATE-----
