Certificate:
    Data:
        Version: 1 (0x0)
        Serial Number: 4255 (0x109f)
        Signature Algorithm: ecdsa-with-SHA256
        Issuer: C=CH, ST=Geneva, O=WHO, OU=TNG_TLS, CN=WHO TNG_TLS CA
        Validity
            Not Before: Jun 22 21:55:10 2023 GMT
            Not After : Jul  1 21:55:10 2024 GMT
        Subject: C=BM, O=QuoVadis Limited, CN=QuoVadis Root CA 2 G3
        Subject Public Key Info:
            Public Key Algorithm: id-ecPublicKey
                Public-Key: (256 bit)
                pub:
                    04:71:63:b2:23:19:c1:57:fa:6f:bd:b0:14:85:63:
                    05:23:5f:2d:8d:03:21:62:ed:b3:3b:82:90:8b:cf:
                    d1:e1:72:6a:49:93:a5:84:3c:a4:af:45:31:47:f8:
                    a3:18:f3:35:77:9f:5a:c6:3f:a2:5f:e5:9d:c3:b7:
                    3b:15:08:12:5a
                ASN1 OID: prime256v1
                NIST CURVE: P-256
    Signature Algorithm: ecdsa-with-SHA256
         30:45:02:20:0e:45:44:d1:0f:b1:fc:c5:b4:24:5e:3e:13:c5:
         bf:79:c2:30:9c:e5:70:d8:2c:77:25:3c:dc:ca:51:29:1a:08:
         02:21:00:92:5f:57:cd:72:0e:07:6f:5d:f0:f0:1f:aa:89:36:
         a6:27:0f:88:60:84:b2:c4:5d:9c:82:a3:84:08:79:ad:1e
-----BEGIN CERTIFICATE-----
MIIBiDCCAS4CAhCfMAoGCCqGSM49BAMCMFcxCzAJBgNVBAYTAkNIMQ8wDQYDVQQI
DAZHZW5ldmExDDAKBgNVBAoMA1dITzEQMA4GA1UECwwHVE5HX1RMUzEXMBUGA1UE
AwwOV0hPIFROR19UTFMgQ0EwHhcNMjMwNjIyMjE1NTEwWhcNMjQwNzAxMjE1NTEw
WjBIMQswCQYDVQQGEwJCTTEZMBcGA1UECgwQUXVvVmFkaXMgTGltaXRlZDEeMBwG
A1UEAwwVUXVvVmFkaXMgUm9vdCBDQSAyIEczMFkwEwYHKoZIzj0CAQYIKoZIzj0D
AQcDQgAEcWOyIxnBV/pvvbAUhWMFI18tjQMhYu2zO4KQi8/R4XJqSZOlhDykr0Ux
R/ijGPM1d59axj+iX+Wdw7c7FQgSWjAKBggqhkjOPQQDAgNIADBFAiAORUTRD7H8
xbQkXj4Txb95wjCc5XDYLHclPNzKUSkaCAIhAJJfV81yDgdvXfDwH6qJNqYnD4hg
hLLEXZyCo4QIea0e
-----END CERTIFICATE-----
