Certificate:
    Data:
        Version: 1 (0x0)
        Serial Number: 4251 (0x109b)
        Signature Algorithm: ecdsa-with-SHA256
        Issuer: C=CH, ST=Geneva, O=WHO, OU=TNG_TLS, CN=WHO TNG_TLS CA
        Validity
            Not Before: Jun 22 21:55:10 2023 GMT
            Not After : Jul  1 21:55:10 2024 GMT
        Subject: C=FI, ST=Finland, L=Helsinki, O=Digi- ja vaestotietovirasto, CN=test.dgc.cloud.dvv.fi
        Subject Public Key Info:
            Public Key Algorithm: id-ecPublicKey
                Public-Key: (256 bit)
                pub:
                    04:71:63:b2:23:19:c1:57:fa:6f:bd:b0:14:85:63:
                    05:23:5f:2d:8d:03:21:62:ed:b3:3b:82:90:8b:cf:
                    d1:e1:72:6a:49:93:a5:84:3c:a4:af:45:31:47:f8:
                    a3:18:f3:35:77:9f:5a:c6:3f:a2:5f:e5:9d:c3:b7:
                    3b:15:08:12:5a
                ASN1 OID: prime256v1
                NIST CURVE: P-256
    Signature Algorithm: ecdsa-with-SHA256
         30:45:02:20:26:5c:35:34:e3:4c:45:3d:5b:c6:f7:53:5c:e9:
         5b:ec:95:26:e1:fd:78:db:dd:d7:2f:88:87:fb:3f:42:cc:cf:
         02:21:00:dd:d9:a7:b5:d9:3f:a4:62:13:fa:36:b4:ba:25:72:
         05:a3:07:b9:b9:59:fa:70:f9:77:92:d7:00:19:9f:df:dd
-----BEGIN CERTIFICATE-----
MIIBuDCCAV4CAhCbMAoGCCqGSM49BAMCMFcxCzAJBgNVBAYTAkNIMQ8wDQYDVQQI
DAZHZW5ldmExDDAKBgNVBAoMA1dITzEQMA4GA1UECwwHVE5HX1RMUzEXMBUGA1UE
AwwOV0hPIFROR19UTFMgQ0EwHhcNMjMwNjIyMjE1NTEwWhcNMjQwNzAxMjE1NTEw
WjB4MQswCQYDVQQGEwJGSTEQMA4GA1UECAwHRmlubGFuZDERMA8GA1UEBwwISGVs
c2lua2kxJDAiBgNVBAoMG0RpZ2ktIGphIHZhZXN0b3RpZXRvdmlyYXN0bzEeMBwG
A1UEAwwVdGVzdC5kZ2MuY2xvdWQuZHZ2LmZpMFkwEwYHKoZIzj0CAQYIKoZIzj0D
AQcDQgAEcWOyIxnBV/pvvbAUhWMFI18tjQMhYu2zO4KQi8/R4XJqSZOlhDykr0Ux
R/ijGPM1d59axj+iX+Wdw7c7FQgSWjAKBggqhkjOPQQDAgNIADBFAiAmXDU040xF
PVvG91Nc6VvslSbh/Xjb3dcviIf7P0LMzwIhAN3Zp7XZP6RiE/o2tLolcgWjB7m5
Wfpw+XeS1wAZn9/d
-----END CERTIFICATE-----
