Certificate:
    Data:
        Version: 1 (0x0)
        Serial Number: 4117 (0x1015)
        Signature Algorithm: ecdsa-with-SHA256
        Issuer: C=CH, ST=Geneva, O=WHO, OU=TNG_TA, CN=WHO TNG_TA CA
        Validity
            Not Before: Jun 23 08:50:04 2023 GMT
            Not After : Jul  2 08:50:04 2024 GMT
        Subject: C=XX, ST=RYAN TEST COUNTRY, CN=XX/emailAddress=ryan@seldonplan.com
        Subject Public Key Info:
            Public Key Algorithm: id-ecPublicKey
                Public-Key: (256 bit)
                pub:
                    04:c7:b3:eb:9c:24:23:94:47:e3:3a:60:9a:15:11:
                    a7:d2:e2:60:44:ad:4b:f1:63:b1:06:bd:7c:8b:aa:
                    9c:04:04:e0:e1:64:3f:2b:4f:9f:57:12:b0:c0:14:
                    41:26:9a:b9:12:e0:47:f1:3f:3c:3b:44:67:85:a6:
                    9b:81:60:9b:80
                ASN1 OID: prime256v1
                NIST CURVE: P-256
    Signature Algorithm: ecdsa-with-SHA256
         30:45:02:20:20:b2:90:84:8e:f9:24:54:c2:54:bc:9b:cf:56:
         56:70:26:18:d0:2c:00:49:87:e3:41:4b:b4:52:eb:c8:f7:52:
         02:21:00:d8:6d:52:1f:e7:ad:5f:c9:81:af:36:fa:dc:32:b8:
         4e:45:c3:40:68:c7:6a:19:64:4e:bc:52:5b:a8:32:40:01
-----BEGIN CERTIFICATE-----
MIIBmDCCAT4CAhAVMAoGCCqGSM49BAMCMFUxCzAJBgNVBAYTAkNIMQ8wDQYDVQQI
DAZHZW5ldmExDDAKBgNVBAoMA1dITzEPMA0GA1UECwwGVE5HX1RBMRYwFAYDVQQD
DA1XSE8gVE5HX1RBIENBMB4XDTIzMDYyMzA4NTAwNFoXDTI0MDcwMjA4NTAwNFow
WjELMAkGA1UEBhMCWFgxGjAYBgNVBAgMEVJZQU4gVEVTVCBDT1VOVFJZMQswCQYD
VQQDDAJYWDEiMCAGCSqGSIb3DQEJARYTcnlhbkBzZWxkb25wbGFuLmNvbTBZMBMG
ByqGSM49AgEGCCqGSM49AwEHA0IABMez65wkI5RH4zpgmhURp9LiYEStS/FjsQa9
fIuqnAQE4OFkPytPn1cSsMAUQSaauRLgR/E/PDtEZ4Wmm4Fgm4AwCgYIKoZIzj0E
AwIDSAAwRQIgILKQhI75JFTCVLybz1ZWcCYY0CwASYfjQUu0UuvI91ICIQDYbVIf
561fyYGvNvrcMrhORcNAaMdqGWROvFJbqDJAAQ==
-----END CERTIFICATE-----
