Certificate:
    Data:
        Version: 1 (0x0)
        Serial Number: 4159 (0x103f)
        Signature Algorithm: ecdsa-with-SHA256
        Issuer: C=CH, ST=Geneva, O=WHO, OU=TNG_TA, CN=WHO TNG_TA CA
        Validity
            Not Before: Jun 26 19:28:15 2023 GMT
            Not After : Jul  5 19:28:15 2024 GMT
        Subject: C=XX, ST=RYAN TEST COUNTRY, CN=XX/emailAddress=ryan@seldonplan.com
        Subject Public Key Info:
            Public Key Algorithm: id-ecPublicKey
                Public-Key: (256 bit)
                pub:
                    04:c7:b3:eb:9c:24:23:94:47:e3:3a:60:9a:15:11:
                    a7:d2:e2:60:44:ad:4b:f1:63:b1:06:bd:7c:8b:aa:
                    9c:04:04:e0:e1:64:3f:2b:4f:9f:57:12:b0:c0:14:
                    41:26:9a:b9:12:e0:47:f1:3f:3c:3b:44:67:85:a6:
                    9b:81:60:9b:80
                ASN1 OID: prime256v1
                NIST CURVE: P-256
    Signature Algorithm: ecdsa-with-SHA256
         30:45:02:20:36:9d:b6:21:b1:7e:82:b1:41:0f:42:7f:12:60:
         cf:21:cf:10:37:17:7c:f0:b3:86:a2:5e:04:0b:65:76:06:82:
         02:21:00:80:d0:c8:f3:c5:8a:fa:dc:c2:fe:f9:e8:36:18:c7:
         8c:70:13:c2:9b:9e:b3:f7:f9:fb:5f:8a:f2:a3:eb:df:08
-----BEGIN CERTIFICATE-----
MIIBmDCCAT4CAhA/MAoGCCqGSM49BAMCMFUxCzAJBgNVBAYTAkNIMQ8wDQYDVQQI
DAZHZW5ldmExDDAKBgNVBAoMA1dITzEPMA0GA1UECwwGVE5HX1RBMRYwFAYDVQQD
DA1XSE8gVE5HX1RBIENBMB4XDTIzMDYyNjE5MjgxNVoXDTI0MDcwNTE5MjgxNVow
WjELMAkGA1UEBhMCWFgxGjAYBgNVBAgMEVJZQU4gVEVTVCBDT1VOVFJZMQswCQYD
VQQDDAJYWDEiMCAGCSqGSIb3DQEJARYTcnlhbkBzZWxkb25wbGFuLmNvbTBZMBMG
ByqGSM49AgEGCCqGSM49AwEHA0IABMez65wkI5RH4zpgmhURp9LiYEStS/FjsQa9
fIuqnAQE4OFkPytPn1cSsMAUQSaauRLgR/E/PDtEZ4Wmm4Fgm4AwCgYIKoZIzj0E
AwIDSAAwRQIgNp22IbF+grFBD0J/EmDPIc8QNxd88LOGol4EC2V2BoICIQCA0Mjz
xYr63ML++eg2GMeMcBPCm56z9/n7X4ryo+vfCA==
-----END CERTIFICATE-----
