Certificate:
    Data:
        Version: 1 (0x0)
        Serial Number: 4131 (0x1023)
        Signature Algorithm: ecdsa-with-SHA256
        Issuer: C=CH, ST=Geneva, O=WHO, OU=TNG_TA, CN=WHO TNG_TA CA
        Validity
            Not Before: Jun 23 09:50:16 2023 GMT
            Not After : Jul  2 09:50:16 2024 GMT
        Subject: C=XX, ST=RYAN TEST COUNTRY, CN=XX/emailAddress=ryan@seldonplan.com
        Subject Public Key Info:
            Public Key Algorithm: id-ecPublicKey
                Public-Key: (256 bit)
                pub:
                    04:c7:b3:eb:9c:24:23:94:47:e3:3a:60:9a:15:11:
                    a7:d2:e2:60:44:ad:4b:f1:63:b1:06:bd:7c:8b:aa:
                    9c:04:04:e0:e1:64:3f:2b:4f:9f:57:12:b0:c0:14:
                    41:26:9a:b9:12:e0:47:f1:3f:3c:3b:44:67:85:a6:
                    9b:81:60:9b:80
                ASN1 OID: prime256v1
                NIST CURVE: P-256
    Signature Algorithm: ecdsa-with-SHA256
         30:46:02:21:00:d2:9d:8b:22:56:9d:e5:58:50:21:73:04:a1:
         b8:59:8b:5c:a2:e9:ab:43:4a:dc:75:ee:16:60:94:5c:65:7c:
         93:02:21:00:c1:e4:52:d8:fb:91:ff:cc:b8:92:d8:d8:98:0f:
         30:58:12:1a:4f:fc:3b:60:9a:4b:ba:55:94:2d:7f:ea:8f:ad
-----BEGIN CERTIFICATE-----
MIIBmTCCAT4CAhAjMAoGCCqGSM49BAMCMFUxCzAJBgNVBAYTAkNIMQ8wDQYDVQQI
DAZHZW5ldmExDDAKBgNVBAoMA1dITzEPMA0GA1UECwwGVE5HX1RBMRYwFAYDVQQD
DA1XSE8gVE5HX1RBIENBMB4XDTIzMDYyMzA5NTAxNloXDTI0MDcwMjA5NTAxNlow
WjELMAkGA1UEBhMCWFgxGjAYBgNVBAgMEVJZQU4gVEVTVCBDT1VOVFJZMQswCQYD
VQQDDAJYWDEiMCAGCSqGSIb3DQEJARYTcnlhbkBzZWxkb25wbGFuLmNvbTBZMBMG
ByqGSM49AgEGCCqGSM49AwEHA0IABMez65wkI5RH4zpgmhURp9LiYEStS/FjsQa9
fIuqnAQE4OFkPytPn1cSsMAUQSaauRLgR/E/PDtEZ4Wmm4Fgm4AwCgYIKoZIzj0E
AwIDSQAwRgIhANKdiyJWneVYUCFzBKG4WYtcoumrQ0rcde4WYJRcZXyTAiEAweRS
2PuR/8y4ktjYmA8wWBIaT/w7YJpLulWULX/qj60=
-----END CERTIFICATE-----
