Certificate:
    Data:
        Version: 1 (0x0)
        Serial Number: 4137 (0x1029)
        Signature Algorithm: ecdsa-with-SHA256
        Issuer: C=CH, ST=Geneva, O=WHO, OU=TNG_TA, CN=WHO TNG_TA CA
        Validity
            Not Before: Jun 23 10:17:11 2023 GMT
            Not After : Jul  2 10:17:11 2024 GMT
        Subject: C=XX, ST=RYAN TEST COUNTRY, CN=XX/emailAddress=ryan@seldonplan.com
        Subject Public Key Info:
            Public Key Algorithm: id-ecPublicKey
                Public-Key: (256 bit)
                pub:
                    04:c7:b3:eb:9c:24:23:94:47:e3:3a:60:9a:15:11:
                    a7:d2:e2:60:44:ad:4b:f1:63:b1:06:bd:7c:8b:aa:
                    9c:04:04:e0:e1:64:3f:2b:4f:9f:57:12:b0:c0:14:
                    41:26:9a:b9:12:e0:47:f1:3f:3c:3b:44:67:85:a6:
                    9b:81:60:9b:80
                ASN1 OID: prime256v1
                NIST CURVE: P-256
    Signature Algorithm: ecdsa-with-SHA256
         30:45:02:20:68:0d:0e:78:fc:32:4d:02:84:0d:24:55:cc:9b:
         7a:7c:86:33:0f:2b:af:4c:e1:b7:a3:d1:3e:bf:af:7d:e4:0d:
         02:21:00:8f:11:51:f4:bc:af:df:57:0b:70:20:3f:a6:b1:35:
         c4:62:3a:df:ec:18:e6:40:ca:7d:60:c6:cc:14:4a:15:35
-----BEGIN CERTIFICATE-----
MIIBmDCCAT4CAhApMAoGCCqGSM49BAMCMFUxCzAJBgNVBAYTAkNIMQ8wDQYDVQQI
DAZHZW5ldmExDDAKBgNVBAoMA1dITzEPMA0GA1UECwwGVE5HX1RBMRYwFAYDVQQD
DA1XSE8gVE5HX1RBIENBMB4XDTIzMDYyMzEwMTcxMVoXDTI0MDcwMjEwMTcxMVow
WjELMAkGA1UEBhMCWFgxGjAYBgNVBAgMEVJZQU4gVEVTVCBDT1VOVFJZMQswCQYD
VQQDDAJYWDEiMCAGCSqGSIb3DQEJARYTcnlhbkBzZWxkb25wbGFuLmNvbTBZMBMG
ByqGSM49AgEGCCqGSM49AwEHA0IABMez65wkI5RH4zpgmhURp9LiYEStS/FjsQa9
fIuqnAQE4OFkPytPn1cSsMAUQSaauRLgR/E/PDtEZ4Wmm4Fgm4AwCgYIKoZIzj0E
AwIDSAAwRQIgaA0OePwyTQKEDSRVzJt6fIYzDyuvTOG3o9E+v6995A0CIQCPEVH0
vK/fVwtwID+msTXEYjrf7BjmQMp9YMbMFEoVNQ==
-----END CERTIFICATE-----
