Certificate:
    Data:
        Version: 1 (0x0)
        Serial Number: 4165 (0x1045)
        Signature Algorithm: ecdsa-with-SHA256
        Issuer: C=CH, ST=Geneva, O=WHO, OU=TNG_TA, CN=WHO TNG_TA CA
        Validity
            Not Before: Jun 26 19:39:23 2023 GMT
            Not After : Jul  5 19:39:23 2024 GMT
        Subject: C=XX, ST=RYAN TEST COUNTRY, CN=XX/emailAddress=ryan@seldonplan.com
        Subject Public Key Info:
            Public Key Algorithm: id-ecPublicKey
                Public-Key: (256 bit)
                pub:
                    04:c7:b3:eb:9c:24:23:94:47:e3:3a:60:9a:15:11:
                    a7:d2:e2:60:44:ad:4b:f1:63:b1:06:bd:7c:8b:aa:
                    9c:04:04:e0:e1:64:3f:2b:4f:9f:57:12:b0:c0:14:
                    41:26:9a:b9:12:e0:47:f1:3f:3c:3b:44:67:85:a6:
                    9b:81:60:9b:80
                ASN1 OID: prime256v1
                NIST CURVE: P-256
    Signature Algorithm: ecdsa-with-SHA256
         30:46:02:21:00:c0:a8:cb:ef:ed:9f:ec:2e:de:6b:2f:ce:0d:
         83:5a:9f:70:cd:bb:7b:73:e8:be:7f:84:63:be:bf:82:dc:1e:
         03:02:21:00:c2:cc:76:72:8c:13:67:6c:7b:34:fd:8c:25:35:
         98:09:00:de:fe:94:ba:1c:df:a4:68:c9:bc:ed:44:b1:2e:3d
-----BEGIN CERTIFICATE-----
MIIBmTCCAT4CAhBFMAoGCCqGSM49BAMCMFUxCzAJBgNVBAYTAkNIMQ8wDQYDVQQI
DAZHZW5ldmExDDAKBgNVBAoMA1dITzEPMA0GA1UECwwGVE5HX1RBMRYwFAYDVQQD
DA1XSE8gVE5HX1RBIENBMB4XDTIzMDYyNjE5MzkyM1oXDTI0MDcwNTE5MzkyM1ow
WjELMAkGA1UEBhMCWFgxGjAYBgNVBAgMEVJZQU4gVEVTVCBDT1VOVFJZMQswCQYD
VQQDDAJYWDEiMCAGCSqGSIb3DQEJARYTcnlhbkBzZWxkb25wbGFuLmNvbTBZMBMG
ByqGSM49AgEGCCqGSM49AwEHA0IABMez65wkI5RH4zpgmhURp9LiYEStS/FjsQa9
fIuqnAQE4OFkPytPn1cSsMAUQSaauRLgR/E/PDtEZ4Wmm4Fgm4AwCgYIKoZIzj0E
AwIDSQAwRgIhAMCoy+/tn+wu3msvzg2DWp9wzbt7c+i+f4Rjvr+C3B4DAiEAwsx2
cowTZ2x7NP2MJTWYCQDe/pS6HN+kaMm87USxLj0=
-----END CERTIFICATE-----
