Certificate:
    Data:
        Version: 1 (0x0)
        Serial Number: 4121 (0x1019)
        Signature Algorithm: ecdsa-with-SHA256
        Issuer: C=CH, ST=Geneva, O=WHO, OU=TNG_TA, CN=WHO TNG_TA CA
        Validity
            Not Before: Jun 22 21:55:10 2023 GMT
            Not After : Jul  1 21:55:10 2024 GMT
        Subject: C=XX, ST=RYAN TEST COUNTRY, CN=XX/emailAddress=ryan@seldonplan.com
        Subject Public Key Info:
            Public Key Algorithm: id-ecPublicKey
                Public-Key: (256 bit)
                pub:
                    04:00:21:1e:38:d8:e4:1d:24:52:92:d6:96:6d:06:
                    5a:7d:33:c0:b4:a8:f6:64:b0:01:00:6c:ea:d7:2b:
                    92:af:2c:6a:b7:cb:e5:5d:18:2d:70:17:a5:34:c9:
                    be:3c:4a:d9:78:3b:2e:fe:b5:4e:98:49:ab:43:93:
                    c3:72:29:8a:d2
                ASN1 OID: prime256v1
                NIST CURVE: P-256
    Signature Algorithm: ecdsa-with-SHA256
         30:45:02:20:12:22:83:f7:1f:6b:9d:04:b5:ba:e3:24:9f:3d:
         e9:56:b0:93:f2:5b:29:80:71:04:39:49:98:dd:be:20:d0:4c:
         02:21:00:91:e2:f1:bd:59:86:03:01:b9:ed:a8:84:35:65:03:
         1f:cf:4b:90:18:3c:7f:2f:13:1a:fb:a2:6e:28:a9:03:9a
-----BEGIN CERTIFICATE-----
MIIBmDCCAT4CAhAZMAoGCCqGSM49BAMCMFUxCzAJBgNVBAYTAkNIMQ8wDQYDVQQI
DAZHZW5ldmExDDAKBgNVBAoMA1dITzEPMA0GA1UECwwGVE5HX1RBMRYwFAYDVQQD
DA1XSE8gVE5HX1RBIENBMB4XDTIzMDYyMjIxNTUxMFoXDTI0MDcwMTIxNTUxMFow
WjELMAkGA1UEBhMCWFgxGjAYBgNVBAgMEVJZQU4gVEVTVCBDT1VOVFJZMQswCQYD
VQQDDAJYWDEiMCAGCSqGSIb3DQEJARYTcnlhbkBzZWxkb25wbGFuLmNvbTBZMBMG
ByqGSM49AgEGCCqGSM49AwEHA0IABAAhHjjY5B0kUpLWlm0GWn0zwLSo9mSwAQBs
6tcrkq8sarfL5V0YLXAXpTTJvjxK2Xg7Lv61TphJq0OTw3IpitIwCgYIKoZIzj0E
AwIDSAAwRQIgEiKD9x9rnQS1uuMknz3pVrCT8lspgHEEOUmY3b4g0EwCIQCR4vG9
WYYDAbntqIQ1ZQMfz0uQGDx/LxMa+6JuKKkDmg==
-----END CERTIFICATE-----
