Certificate:
    Data:
        Version: 1 (0x0)
        Serial Number: 4254 (0x109e)
        Signature Algorithm: ecdsa-with-SHA256
        Issuer: C=CH, ST=Geneva, O=WHO, OU=TNG_TLS, CN=WHO TNG_TLS CA
        Validity
            Not Before: Jun 22 21:55:10 2023 GMT
            Not After : Jul  1 21:55:10 2024 GMT
        Subject: C=LV, O=NacionC481lais VeselC4ABbas dienests, OU=TLS, CN=TLS DGC LV 002
        Subject Public Key Info:
            Public Key Algorithm: id-ecPublicKey
                Public-Key: (256 bit)
                pub:
                    04:71:63:b2:23:19:c1:57:fa:6f:bd:b0:14:85:63:
                    05:23:5f:2d:8d:03:21:62:ed:b3:3b:82:90:8b:cf:
                    d1:e1:72:6a:49:93:a5:84:3c:a4:af:45:31:47:f8:
                    a3:18:f3:35:77:9f:5a:c6:3f:a2:5f:e5:9d:c3:b7:
                    3b:15:08:12:5a
                ASN1 OID: prime256v1
                NIST CURVE: P-256
    Signature Algorithm: ecdsa-with-SHA256
         30:44:02:20:77:72:3a:d4:05:7d:8f:27:5d:79:ca:7e:98:c2:
         28:c6:90:25:47:95:2f:fa:34:3d:f5:e6:f6:a9:d2:f6:89:93:
         02:20:71:73:36:46:21:d7:57:99:b1:80:19:19:25:77:45:8e:
         41:c1:04:5f:b7:b7:f9:fc:d4:8a:93:d2:95:ad:16:58
-----BEGIN CERTIFICATE-----
MIIBojCCAUkCAhCeMAoGCCqGSM49BAMCMFcxCzAJBgNVBAYTAkNIMQ8wDQYDVQQI
DAZHZW5ldmExDDAKBgNVBAoMA1dITzEQMA4GA1UECwwHVE5HX1RMUzEXMBUGA1UE
AwwOV0hPIFROR19UTFMgQ0EwHhcNMjMwNjIyMjE1NTEwWhcNMjQwNzAxMjE1NTEw
WjBjMQswCQYDVQQGEwJMVjEtMCsGA1UECgwkTmFjaW9uQzQ4MWxhaXMgVmVzZWxD
NEFCYmFzIGRpZW5lc3RzMQwwCgYDVQQLDANUTFMxFzAVBgNVBAMMDlRMUyBER0Mg
TFYgMDAyMFkwEwYHKoZIzj0CAQYIKoZIzj0DAQcDQgAEcWOyIxnBV/pvvbAUhWMF
I18tjQMhYu2zO4KQi8/R4XJqSZOlhDykr0UxR/ijGPM1d59axj+iX+Wdw7c7FQgS
WjAKBggqhkjOPQQDAgNHADBEAiB3cjrUBX2PJ115yn6YwijGkCVHlS/6ND315vap
0vaJkwIgcXM2RiHXV5mxgBkZJXdFjkHBBF+3t/n81IqT0pWtFlg=
-----END CERTIFICATE-----
