Certificate:
    Data:
        Version: 1 (0x0)
        Serial Number: 4253 (0x109d)
        Signature Algorithm: ecdsa-with-SHA256
        Issuer: C=CH, ST=Geneva, O=WHO, OU=TNG_TLS, CN=WHO TNG_TLS CA
        Validity
            Not Before: Jun 22 21:55:10 2023 GMT
            Not After : Jul  1 21:55:10 2024 GMT
        Subject: C=LV, O=NacionC481lais VeselC4ABbas dienests, OU=TLS, CN=TLS DGC LV 002
        Subject Public Key Info:
            Public Key Algorithm: id-ecPublicKey
                Public-Key: (256 bit)
                pub:
                    04:71:63:b2:23:19:c1:57:fa:6f:bd:b0:14:85:63:
                    05:23:5f:2d:8d:03:21:62:ed:b3:3b:82:90:8b:cf:
                    d1:e1:72:6a:49:93:a5:84:3c:a4:af:45:31:47:f8:
                    a3:18:f3:35:77:9f:5a:c6:3f:a2:5f:e5:9d:c3:b7:
                    3b:15:08:12:5a
                ASN1 OID: prime256v1
                NIST CURVE: P-256
    Signature Algorithm: ecdsa-with-SHA256
         30:45:02:21:00:9c:b5:a7:44:2b:98:70:08:69:56:0f:1c:af:
         82:ce:c7:9f:b8:60:0f:f3:0f:4b:87:3a:aa:52:8b:5a:95:f6:
         18:02:20:0d:50:98:a6:33:43:cc:24:84:28:cc:8f:1f:43:3a:
         a6:cf:4e:7c:ca:ab:60:0f:8a:92:92:71:46:fa:c1:33:02
-----BEGIN CERTIFICATE-----
MIIBozCCAUkCAhCdMAoGCCqGSM49BAMCMFcxCzAJBgNVBAYTAkNIMQ8wDQYDVQQI
DAZHZW5ldmExDDAKBgNVBAoMA1dITzEQMA4GA1UECwwHVE5HX1RMUzEXMBUGA1UE
AwwOV0hPIFROR19UTFMgQ0EwHhcNMjMwNjIyMjE1NTEwWhcNMjQwNzAxMjE1NTEw
WjBjMQswCQYDVQQGEwJMVjEtMCsGA1UECgwkTmFjaW9uQzQ4MWxhaXMgVmVzZWxD
NEFCYmFzIGRpZW5lc3RzMQwwCgYDVQQLDANUTFMxFzAVBgNVBAMMDlRMUyBER0Mg
TFYgMDAyMFkwEwYHKoZIzj0CAQYIKoZIzj0DAQcDQgAEcWOyIxnBV/pvvbAUhWMF
I18tjQMhYu2zO4KQi8/R4XJqSZOlhDykr0UxR/ijGPM1d59axj+iX+Wdw7c7FQgS
WjAKBggqhkjOPQQDAgNIADBFAiEAnLWnRCuYcAhpVg8cr4LOx5+4YA/zD0uHOqpS
i1qV9hgCIA1QmKYzQ8wkhCjMjx9DOqbPTnzKq2APipKScUb6wTMC
-----END CERTIFICATE-----
