Certificate:
    Data:
        Version: 1 (0x0)
        Serial Number: 4250 (0x109a)
        Signature Algorithm: ecdsa-with-SHA256
        Issuer: C=CH, ST=Geneva, O=WHO, OU=TNG_TLS, CN=WHO TNG_TLS CA
        Validity
            Not Before: Jun 22 21:55:10 2023 GMT
            Not After : Jul  1 21:55:10 2024 GMT
        Subject: C=EE, ST=Harjumaa, L=Tallinn, O=Health and Welfare Information Systems Center, CN=DGC_TLS_TEST_EE_01
        Subject Public Key Info:
            Public Key Algorithm: id-ecPublicKey
                Public-Key: (256 bit)
                pub:
                    04:71:63:b2:23:19:c1:57:fa:6f:bd:b0:14:85:63:
                    05:23:5f:2d:8d:03:21:62:ed:b3:3b:82:90:8b:cf:
                    d1:e1:72:6a:49:93:a5:84:3c:a4:af:45:31:47:f8:
                    a3:18:f3:35:77:9f:5a:c6:3f:a2:5f:e5:9d:c3:b7:
                    3b:15:08:12:5a
                ASN1 OID: prime256v1
                NIST CURVE: P-256
    Signature Algorithm: ecdsa-with-SHA256
         30:46:02:21:00:fa:85:15:b4:f7:5e:3c:0f:02:b3:b2:59:62:
         e2:01:a0:74:98:af:6b:47:40:6b:7d:44:08:f9:63:90:57:55:
         a1:02:21:00:96:83:ec:2b:4d:53:13:86:46:f1:7e:98:94:5e:
         1c:4b:1f:35:fa:90:07:cc:0a:25:e0:13:28:0a:71:c2:f3:28
-----BEGIN CERTIFICATE-----
MIIByTCCAW4CAhCaMAoGCCqGSM49BAMCMFcxCzAJBgNVBAYTAkNIMQ8wDQYDVQQI
DAZHZW5ldmExDDAKBgNVBAoMA1dITzEQMA4GA1UECwwHVE5HX1RMUzEXMBUGA1UE
AwwOV0hPIFROR19UTFMgQ0EwHhcNMjMwNjIyMjE1NTEwWhcNMjQwNzAxMjE1NTEw
WjCBhzELMAkGA1UEBhMCRUUxETAPBgNVBAgMCEhhcmp1bWFhMRAwDgYDVQQHDAdU
YWxsaW5uMTYwNAYDVQQKDC1IZWFsdGggYW5kIFdlbGZhcmUgSW5mb3JtYXRpb24g
U3lzdGVtcyBDZW50ZXIxGzAZBgNVBAMMEkRHQ19UTFNfVEVTVF9FRV8wMTBZMBMG
ByqGSM49AgEGCCqGSM49AwEHA0IABHFjsiMZwVf6b72wFIVjBSNfLY0DIWLtszuC
kIvP0eFyakmTpYQ8pK9FMUf4oxjzNXefWsY/ol/lncO3OxUIElowCgYIKoZIzj0E
AwIDSQAwRgIhAPqFFbT3XjwPArOyWWLiAaB0mK9rR0BrfUQI+WOQV1WhAiEAloPs
K01TE4ZG8X6YlF4cSx81+pAHzAol4BMoCnHC8yg=
-----END CERTIFICATE-----
