Certificate:
    Data:
        Version: 1 (0x0)
        Serial Number: 4249 (0x1099)
        Signature Algorithm: ecdsa-with-SHA256
        Issuer: C=CH, ST=Geneva, O=WHO, OU=TNG_TLS, CN=WHO TNG_TLS CA
        Validity
            Not Before: Jun 22 21:55:10 2023 GMT
            Not After : Jul  1 21:55:10 2024 GMT
        Subject: CN=Ministerio de Sanidad y Consumo
        Subject Public Key Info:
            Public Key Algorithm: id-ecPublicKey
                Public-Key: (256 bit)
                pub:
                    04:71:63:b2:23:19:c1:57:fa:6f:bd:b0:14:85:63:
                    05:23:5f:2d:8d:03:21:62:ed:b3:3b:82:90:8b:cf:
                    d1:e1:72:6a:49:93:a5:84:3c:a4:af:45:31:47:f8:
                    a3:18:f3:35:77:9f:5a:c6:3f:a2:5f:e5:9d:c3:b7:
                    3b:15:08:12:5a
                ASN1 OID: prime256v1
                NIST CURVE: P-256
    Signature Algorithm: ecdsa-with-SHA256
         30:45:02:20:64:09:67:06:92:7e:25:16:4f:35:68:e4:32:02:
         a7:ef:3d:67:82:1f:7d:cf:b3:46:47:5c:8d:53:2b:27:24:67:
         02:21:00:f5:98:d8:55:e0:2b:cd:5d:fa:61:65:d3:b9:f7:51:
         eb:14:39:20:68:89:1f:94:01:3f:e6:79:c8:e7:3b:22:1a
-----BEGIN CERTIFICATE-----
MIIBajCCARACAhCZMAoGCCqGSM49BAMCMFcxCzAJBgNVBAYTAkNIMQ8wDQYDVQQI
DAZHZW5ldmExDDAKBgNVBAoMA1dITzEQMA4GA1UECwwHVE5HX1RMUzEXMBUGA1UE
AwwOV0hPIFROR19UTFMgQ0EwHhcNMjMwNjIyMjE1NTEwWhcNMjQwNzAxMjE1NTEw
WjAqMSgwJgYDVQQDDB9NaW5pc3RlcmlvIGRlIFNhbmlkYWQgeSBDb25zdW1vMFkw
EwYHKoZIzj0CAQYIKoZIzj0DAQcDQgAEcWOyIxnBV/pvvbAUhWMFI18tjQMhYu2z
O4KQi8/R4XJqSZOlhDykr0UxR/ijGPM1d59axj+iX+Wdw7c7FQgSWjAKBggqhkjO
PQQDAgNIADBFAiBkCWcGkn4lFk81aOQyAqfvPWeCH33Ps0ZHXI1TKyckZwIhAPWY
2FXgK81d+mFl07n3UesUOSBoiR+UAT/mecjnOyIa
-----END CERTIFICATE-----
